; Function Attrs: mustprogress uwtable
define hidden void @_ZNK5ceres8internal19TripletSparseMatrix11ToCRSMatrixEPNS_9CRSMatrixE(ptr noundef nonnull align 8 dereferenceable(48) %0, ptr noundef %1) local_unnamed_addr #4 align 2 personality ptr @__gxx_personality_v0 {
  %3 = alloca %"class.std::unique_ptr.29", align 8
  call void @_ZN5ceres8internal25CompressedRowSparseMatrix23FromTripletSparseMatrixERKNS0_19TripletSparseMatrixE(ptr dead_on_unwind nonnull writable sret(%"class.std::unique_ptr.29") align 8 %3, ptr noundef nonnull align 8 dereferenceable(48) %0)
  %4 = load ptr, ptr %3, align 8
  invoke void @_ZNK5ceres8internal25CompressedRowSparseMatrix11ToCRSMatrixEPNS_9CRSMatrixE(ptr noundef nonnull align 8 dereferenceable(144) %4, ptr noundef %1)
          to label %5 unwind label %10

5:                                                ; preds = %2
  %6 = load ptr, ptr %3, align 8
  %.not.i = icmp eq ptr %6, null
  br i1 %.not.i, label %_ZNSt10unique_ptrIN5ceres8internal25CompressedRowSparseMatrixESt14default_deleteIS2_EED2Ev.exit, label %_ZNKSt14default_deleteIN5ceres8internal25CompressedRowSparseMatrixEEclEPS2_.exit.i

_ZNKSt14default_deleteIN5ceres8internal25CompressedRowSparseMatrixEEclEPS2_.exit.i: ; preds = %5
  %7 = load ptr, ptr %6, align 8
  %8 = getelementptr inbounds i8, ptr %7, i64 8
  %9 = load ptr, ptr %8, align 8
  call void %9(ptr noundef nonnull align 8 dereferenceable(144) %6) #26
  br label %_ZNSt10unique_ptrIN5ceres8internal25CompressedRowSparseMatrixESt14default_deleteIS2_EED2Ev.exit

_ZNSt10unique_ptrIN5ceres8internal25CompressedRowSparseMatrixESt14default_deleteIS2_EED2Ev.exit: ; preds = %5, %_ZNKSt14default_deleteIN5ceres8internal25CompressedRowSparseMatrixEEclEPS2_.exit.i
  ret void

10:                                               ; preds = %2
  %11 = landingpad { ptr, i32 }
          cleanup
  %12 = load ptr, ptr %3, align 8
  %.not.i3 = icmp eq ptr %12, null
  br i1 %.not.i3, label %_ZNSt10unique_ptrIN5ceres8internal25CompressedRowSparseMatrixESt14default_deleteIS2_EED2Ev.exit5, label %_ZNKSt14default_deleteIN5ceres8internal25CompressedRowSparseMatrixEEclEPS2_.exit.i4

_ZNKSt14default_deleteIN5ceres8internal25CompressedRowSparseMatrixEEclEPS2_.exit.i4: ; preds = %10
  %13 = load ptr, ptr %12, align 8
  %14 = getelementptr inbounds i8, ptr %13, i64 8
  %15 = load ptr, ptr %14, align 8
  call void %15(ptr noundef nonnull align 8 dereferenceable(144) %12) #26
  br label %_ZNSt10unique_ptrIN5ceres8internal25CompressedRowSparseMatrixESt14default_deleteIS2_EED2Ev.exit5

_ZNSt10unique_ptrIN5ceres8internal25CompressedRowSparseMatrixESt14default_deleteIS2_EED2Ev.exit5: ; preds = %10, %_ZNKSt14default_deleteIN5ceres8internal25CompressedRowSparseMatrixEEclEPS2_.exit.i4
  resume { ptr, i32 } %11
}